target datalayout = "e-m:e-p270:32:32-p271:32:32-p272:64:64-i64:64-i128:128-f80:128-n8:16:32:64-S128"
target triple = "x86_64-pc-linux-gnu"

; Function Attrs: nounwind uwtable
define internal void @input_timestamp_listener(ptr noundef %0, ptr noundef %1, i32 noundef %2, i32 noundef %3, i32 noundef %4) #0 {
  %6 = alloca ptr, align 8
  %7 = alloca ptr, align 8
  %8 = alloca i32, align 4
  %9 = alloca i32, align 4
  %10 = alloca i32, align 4
  store ptr %0, ptr %6, align 8
  store ptr %1, ptr %7, align 8
  store i32 %2, ptr %8, align 4
  store i32 %3, ptr %9, align 4
  store i32 %4, ptr %10, align 4
  %11 = load i32, ptr %8, align 4
  %12 = zext i32 %11 to i64
  %13 = shl i64 %12, 32
  %14 = load i32, ptr %9, align 4
  %15 = zext i32 %14 to i64
  %16 = or i64 %13, %15
  %17 = mul i64 %16, 1000000000
  %18 = load i32, ptr %10, align 4
  %19 = zext i32 %18 to i64
  %20 = add i64 %17, %19
  %21 = load ptr, ptr %6, align 8
  store i64 %20, ptr %21, align 8
  ret void
}