; Function Attrs: mustprogress nofree norecurse nosync nounwind willreturn memory(argmem: write) uwtable
define internal void @input_timestamp_listener(ptr noundef writeonly captures(none) initializes((0, 8)) %0, ptr readnone captures(none) %1, i32 noundef %2, i32 noundef %3, i32 noundef %4) #5 {
  %6 = zext i32 %2 to i64
  %7 = shl nuw i64 %6, 32
  %8 = zext i32 %3 to i64
  %9 = or disjoint i64 %7, %8
  %10 = mul i64 %9, 1000000000
  %11 = zext i32 %4 to i64
  %12 = add i64 %10, %11
  store i64 %12, ptr %0, align 8
  ret void
}